target datalayout = "e-m:e-p270:32:32-p271:32:32-p272:64:64-i64:64-i128:128-f80:128-n8:16:32:64-S128"
target triple = "x86_64-pc-linux-gnu"

%struct.reassembly_table_functions = type { ptr, ptr, ptr, ptr, ptr, ptr }
%struct.tcpcl_fragment_key_t = type { ptr, i64 }

@addresses_ports_reassembly_table_functions = external constant %struct.reassembly_table_functions, align 8

; Function Attrs: null_pointer_is_valid sspstrong uwtable
define internal ptr @fragment_key_temporary(ptr noundef %0, i32 noundef %1, ptr noundef %2) #0 {
  %4 = alloca ptr, align 8
  %5 = alloca i32, align 4
  %6 = alloca ptr, align 8
  %7 = alloca ptr, align 8
  store ptr %0, ptr %4, align 8
  store i32 %1, ptr %5, align 4
  store ptr %2, ptr %6, align 8
  call void @llvm.lifetime.start.p0(i64 8, ptr %7) #11
  %8 = call noalias ptr @g_slice_alloc(i64 noundef 16) #15
  store ptr %8, ptr %7, align 8
  %9 = load ptr, ptr getelementptr inbounds nuw (%struct.reassembly_table_functions, ptr @addresses_ports_reassembly_table_functions, i32 0, i32 2), align 8
  %10 = load ptr, ptr %4, align 8
  %11 = load i32, ptr %5, align 4
  %12 = call ptr %9(ptr noundef %10, i32 noundef %11, ptr noundef null)
  %13 = load ptr, ptr %7, align 8
  %14 = getelementptr inbounds nuw %struct.tcpcl_fragment_key_t, ptr %13, i32 0, i32 0
  store ptr %12, ptr %14, align 8
  %15 = load ptr, ptr %6, align 8
  %16 = load i64, ptr %15, align 8
  %17 = load ptr, ptr %7, align 8
  %18 = getelementptr inbounds nuw %struct.tcpcl_fragment_key_t, ptr %17, i32 0, i32 1
  store i64 %16, ptr %18, align 8
  %19 = load ptr, ptr %7, align 8
  call void @llvm.lifetime.end.p0(i64 8, ptr %7) #11
  ret ptr %19
}