; Function Attrs: null_pointer_is_valid sspstrong uwtable
define internal noundef ptr @fragment_key_temporary(ptr noundef %0, i32 noundef %1, ptr noundef readonly captures(none) %2) #0 {
  %4 = tail call noalias dereferenceable_or_null(16) ptr @g_slice_alloc(i64 noundef 16) #15
  %5 = load ptr, ptr getelementptr inbounds nuw (i8, ptr @addresses_ports_reassembly_table_functions, i64 16), align 8
  %6 = tail call ptr %5(ptr noundef %0, i32 noundef %1, ptr noundef null)
  store ptr %6, ptr %4, align 8
  %7 = load i64, ptr %2, align 8
  %8 = getelementptr inbounds nuw i8, ptr %4, i64 8
  store i64 %7, ptr %8, align 8
  ret ptr %4
}